; ModuleID = '4/99.c'
source_filename = "4/99.c"
target datalayout = "e-m:e-p270:32:32-p271:32:32-p272:64:64-i64:64-f80:128-n8:16:32:64-S128"
target triple = "x86_64-pc-linux-gnu"

@.str = private unnamed_addr constant [6 x i8] c"%d %d\00", align 1
@.str.1 = private unnamed_addr constant [3 x i8] c"%d\00", align 1
@.str.2 = private unnamed_addr constant [4 x i8] c"%d\0A\00", align 1

; Function Attrs: noinline nounwind uwtable
define dso_local i32 @main() #0 {
  %1 = alloca i32, align 4
  %2 = alloca i32, align 4
  %3 = alloca i32, align 4
  %4 = alloca [1000 x [1000 x i32]], align 16
  %5 = alloca i32, align 4
  %6 = alloca i32, align 4
  %7 = alloca i32, align 4
  store i32 0, i32* %1, align 4
  %8 = call i32 (i8*, ...) @__isoc99_scanf(i8* getelementptr inbounds ([6 x i8], [6 x i8]* @.str, i64 0, i64 0), i32* %2, i32* %3)
  store i32 0, i32* %6, align 4
  br label %9

9:                                                ; preds = %30, %0
  %10 = load i32, i32* %6, align 4
  %11 = load i32, i32* %2, align 4
  %12 = icmp slt i32 %10, %11
  br i1 %12, label %13, label %33

13:                                               ; preds = %9
  store i32 0, i32* %5, align 4
  br label %14

14:                                               ; preds = %26, %13
  %15 = load i32, i32* %5, align 4
  %16 = load i32, i32* %3, align 4
  %17 = icmp slt i32 %15, %16
  br i1 %17, label %18, label %29

18:                                               ; preds = %14
  %19 = load i32, i32* %6, align 4
  %20 = sext i32 %19 to i64
  %21 = getelementptr inbounds [1000 x [1000 x i32]], [1000 x [1000 x i32]]* %4, i64 0, i64 %20
  %22 = load i32, i32* %5, align 4
  %23 = sext i32 %22 to i64
  %24 = getelementptr inbounds [1000 x i32], [1000 x i32]* %21, i64 0, i64 %23
  %25 = call i32 (i8*, ...) @__isoc99_scanf(i8* getelementptr inbounds ([3 x i8], [3 x i8]* @.str.1, i64 0, i64 0), i32* %24)
  br label %26

26:                                               ; preds = %18
  %27 = load i32, i32* %5, align 4
  %28 = add nsw i32 %27, 1
  store i32 %28, i32* %5, align 4
  br label %14

29:                                               ; preds = %14
  br label %30

30:                                               ; preds = %29
  %31 = load i32, i32* %6, align 4
  %32 = add nsw i32 %31, 1
  store i32 %32, i32* %6, align 4
  br label %9

33:                                               ; preds = %9
  store i32 0, i32* %7, align 4
  br label %34

34:                                               ; preds = %64, %33
  %35 = load i32, i32* %7, align 4
  %36 = load i32, i32* %3, align 4
  %37 = icmp slt i32 %35, %36
  br i1 %37, label %38, label %67

38:                                               ; preds = %34
  %39 = load i32, i32* %7, align 4
  store i32 %39, i32* %5, align 4
  store i32 0, i32* %6, align 4
  br label %40

40:                                               ; preds = %58, %38
  %41 = load i32, i32* %5, align 4
  %42 = icmp sge i32 %41, 0
  br i1 %42, label %43, label %47

43:                                               ; preds = %40
  %44 = load i32, i32* %6, align 4
  %45 = load i32, i32* %2, align 4
  %46 = icmp slt i32 %44, %45
  br label %47

47:                                               ; preds = %43, %40
  %48 = phi i1 [ false, %40 ], [ %46, %43 ]
  br i1 %48, label %49, label %63

49:                                               ; preds = %47
  %50 = load i32, i32* %6, align 4
  %51 = sext i32 %50 to i64
  %52 = getelementptr inbounds [1000 x [1000 x i32]], [1000 x [1000 x i32]]* %4, i64 0, i64 %51
  %53 = load i32, i32* %5, align 4
  %54 = sext i32 %53 to i64
  %55 = getelementptr inbounds [1000 x i32], [1000 x i32]* %52, i64 0, i64 %54
  %56 = load i32, i32* %55, align 4
  %57 = call i32 (i8*, ...) @printf(i8* getelementptr inbounds ([4 x i8], [4 x i8]* @.str.2, i64 0, i64 0), i32 %56)
  br label %58

58:                                               ; preds = %49
  %59 = load i32, i32* %6, align 4
  %60 = add nsw i32 %59, 1
  store i32 %60, i32* %6, align 4
  %61 = load i32, i32* %5, align 4
  %62 = add nsw i32 %61, -1
  store i32 %62, i32* %5, align 4
  br label %40

63:                                               ; preds = %47
  br label %64

64:                                               ; preds = %63
  %65 = load i32, i32* %7, align 4
  %66 = add nsw i32 %65, 1
  store i32 %66, i32* %7, align 4
  br label %34

67:                                               ; preds = %34
  store i32 1, i32* %7, align 4
  br label %68

68:                                               ; preds = %100, %67
  %69 = load i32, i32* %7, align 4
  %70 = load i32, i32* %2, align 4
  %71 = icmp slt i32 %69, %70
  br i1 %71, label %72, label %103

72:                                               ; preds = %68
  %73 = load i32, i32* %3, align 4
  %74 = sub nsw i32 %73, 1
  store i32 %74, i32* %5, align 4
  %75 = load i32, i32* %7, align 4
  store i32 %75, i32* %6, align 4
  br label %76

76:                                               ; preds = %94, %72
  %77 = load i32, i32* %6, align 4
  %78 = load i32, i32* %2, align 4
  %79 = icmp slt i32 %77, %78
  br i1 %79, label %80, label %83

80:                                               ; preds = %76
  %81 = load i32, i32* %5, align 4
  %82 = icmp sge i32 %81, 0
  br label %83

83:                                               ; preds = %80, %76
  %84 = phi i1 [ false, %76 ], [ %82, %80 ]
  br i1 %84, label %85, label %99

85:                                               ; preds = %83
  %86 = load i32, i32* %6, align 4
  %87 = sext i32 %86 to i64
  %88 = getelementptr inbounds [1000 x [1000 x i32]], [1000 x [1000 x i32]]* %4, i64 0, i64 %87
  %89 = load i32, i32* %5, align 4
  %90 = sext i32 %89 to i64
  %91 = getelementptr inbounds [1000 x i32], [1000 x i32]* %88, i64 0, i64 %90
  %92 = load i32, i32* %91, align 4
  %93 = call i32 (i8*, ...) @printf(i8* getelementptr inbounds ([4 x i8], [4 x i8]* @.str.2, i64 0, i64 0), i32 %92)
  br label %94

94:                                               ; preds = %85
  %95 = load i32, i32* %6, align 4
  %96 = add nsw i32 %95, 1
  store i32 %96, i32* %6, align 4
  %97 = load i32, i32* %5, align 4
  %98 = add nsw i32 %97, -1
  store i32 %98, i32* %5, align 4
  br label %76

99:                                               ; preds = %83
  br label %100

100:                                              ; preds = %99
  %101 = load i32, i32* %7, align 4
  %102 = add nsw i32 %101, 1
  store i32 %102, i32* %7, align 4
  br label %68

103:                                              ; preds = %68
  %104 = load i32, i32* %1, align 4
  ret i32 %104
}

declare dso_local i32 @__isoc99_scanf(i8*, ...) #1

declare dso_local i32 @printf(i8*, ...) #1


!llvm.module.flags = !{!0}
!llvm.ident = !{!1}

!0 = !{i32 1, !"wchar_size", i32 4}
!1 = !{!"clang version 10.0.0-4ubuntu1 "}
